; Function Attrs: nounwind uwtable
define zeroext range(i8 0, 2) i8 @lean_is_marked_borrowed(ptr noundef %0) local_unnamed_addr #0 {
  %2 = load ptr, ptr @l_Lean_markBorrowed___closed__2, align 8, !tbaa !4
  %3 = tail call ptr @l_Lean_annotation_x3f(ptr noundef %2, ptr noundef %0) #3
  %4 = ptrtoint ptr %0 to i64
  %5 = and i64 %4, 1
  %.not = icmp eq i64 %5, 0
  br i1 %.not, label %6, label %lean_dec.exit

6:                                                ; preds = %1
  %7 = load i32, ptr %0, align 4, !tbaa !8
  %8 = icmp sgt i32 %7, 1
  br i1 %8, label %9, label %11, !prof !11

9:                                                ; preds = %6
  %10 = add nsw i32 %7, -1
  store i32 %10, ptr %0, align 4, !tbaa !8
  br label %lean_dec.exit

11:                                               ; preds = %6
  %.not.i8 = icmp eq i32 %7, 0
  br i1 %.not.i8, label %lean_dec.exit, label %12

12:                                               ; preds = %11
  tail call void @lean_dec_ref_cold(ptr noundef nonnull %0) #3
  br label %lean_dec.exit

lean_dec.exit:                                    ; preds = %12, %11, %9, %1
  %13 = ptrtoint ptr %3 to i64
  %14 = and i64 %13, 1
  %.not.i10 = icmp eq i64 %14, 0
  br i1 %.not.i10, label %lean_obj_tag.exit.thread, label %lean_obj_tag.exit

lean_obj_tag.exit:                                ; preds = %lean_dec.exit
  %15 = and i64 %13, 8589934590
  %16 = icmp ne i64 %15, 0
  %spec.select = zext i1 %16 to i8
  br label %lean_dec.exit7

lean_obj_tag.exit.thread:                         ; preds = %lean_dec.exit
  %17 = getelementptr i8, ptr %3, i64 4
  %.val.i = load i32, ptr %17, align 4
  %18 = icmp ult i32 %.val.i, 16777216
  br i1 %18, label %lean_dec.exit7, label %.thread

.thread:                                          ; preds = %lean_obj_tag.exit.thread
  %19 = load i32, ptr %3, align 4, !tbaa !8
  %20 = icmp sgt i32 %19, 1
  br i1 %20, label %21, label %23, !prof !11

21:                                               ; preds = %.thread
  %22 = add nsw i32 %19, -1
  store i32 %22, ptr %3, align 4, !tbaa !8
  br label %lean_dec.exit7

23:                                               ; preds = %.thread
  %.not.i = icmp eq i32 %19, 0
  br i1 %.not.i, label %lean_dec.exit7, label %24

24:                                               ; preds = %23
  tail call void @lean_dec_ref_cold(ptr noundef nonnull %3) #3
  br label %lean_dec.exit7

lean_dec.exit7:                                   ; preds = %lean_obj_tag.exit, %21, %23, %24, %lean_obj_tag.exit.thread
  %.0 = phi i8 [ 0, %lean_obj_tag.exit.thread ], [ 1, %24 ], [ 1, %23 ], [ 1, %21 ], [ %spec.select, %lean_obj_tag.exit ]
  ret i8 %.0
}